Certificate:
    Data:
        Version: 3 (0x2)
        Serial Number: 2 (0x2)
        Signature Algorithm: sha1WithRSAEncryption
        Issuer: C=CN, ST=JS, L=WX, O=CIOTC, OU=WLWAQ, CN=20130627CA/emailAddress=20130627debugCA@ciotc.org
        Validity
            Not Before: Jun 27 04:57:36 2013 GMT
            Not After : Jun 27 04:57:36 2014 GMT
        Subject: C=CN, ST=JS, O=CIOTC, OU=WLWAQ, CN=20130627debugclient/emailAddress=20130627debugclient@ciotc.org
        Subject Public Key Info:
            Public Key Algorithm: rsaEncryption
            RSA Public Key: (512 bit)
                Modulus (512 bit):
                    00:d5:02:c2:cb:a2:c1:a9:de:b7:2a:fc:75:7a:cc:
                    6d:7a:3f:3a:79:1b:59:5d:3a:da:3a:39:42:1a:8e:
                    17:98:c8:64:a4:66:55:e8:1d:52:4b:ad:00:5c:37:
                    fe:55:ec:69:0e:dc:f3:50:59:5d:07:77:bc:ea:1a:
                    9b:51:88:b5:b5
                Exponent: 65537 (0x10001)
        X509v3 extensions:
            X509v3 Basic Constraints: 
                CA:FALSE
            Netscape Comment: 
                OpenSSL Generated Certificate
            X509v3 Subject Key Identifier: 
                C2:67:E4:C1:01:90:30:54:9B:57:D1:61:C3:10:03:49:E8:DB:F6:32
            X509v3 Authority Key Identifier: 
                keyid:FC:2D:89:A2:5C:9A:9C:7C:08:D0:35:5B:EB:B4:2E:5F:9D:51:43:23

    Signature Algorithm: sha1WithRSAEncryption
        36:8f:9a:d1:65:ea:41:29:ec:16:df:61:7b:73:1c:83:97:cb:
        39:42:92:0d:99:89:31:a4:f1:be:4c:51:83:60:ed:a6:a4:c4:
        b3:4c:c2:34:37:0c:46:03:ff:cd:e3:c4:e0:ad:17:2b:70:c0:
        4c:99:0e:34:2f:fd:bc:ea:c2:4b:5e:6d:0a:c4:69:3a:36:42:
        82:77:15:2a:c0:21:d8:8e:58:19:45:d5:d3:4b:e2:6d:38:9d:
        2f:eb:90:a9:a2:b4:99:76:70:c4:07:bb:ae:ac:4e:cd:71:39:
        37:d0:85:d4:ba:0f:64:a0:9d:d7:41:76:51:4a:93:cb:fd:e9:
        c8:28
-----BEGIN CERTIFICATE-----
MIICuzCCAiSgAwIBAgIBAjANBgkqhkiG9w0BAQUFADCBhjELMAkGA1UEBhMCQ04x
CzAJBgNVBAgTAkpTMQswCQYDVQQHEwJXWDEOMAwGA1UEChMFQ0lPVEMxDjAMBgNV
BAsTBVdMV0FRMRMwEQYDVQQDEwoyMDEzMDYyN0NBMSgwJgYJKoZIhvcNAQkBFhky
MDEzMDYyN2RlYnVnQ0FAY2lvdGMub3JnMB4XDTEzMDYyNzA0NTczNloXDTE0MDYy
NzA0NTczNlowgYYxCzAJBgNVBAYTAkNOMQswCQYDVQQIEwJKUzEOMAwGA1UEChMF
Q0lPVEMxDjAMBgNVBAsTBVdMV0FRMRwwGgYDVQQDExMyMDEzMDYyN2RlYnVnY2xp
ZW50MSwwKgYJKoZIhvcNAQkBFh0yMDEzMDYyN2RlYnVnY2xpZW50QGNpb3RjLm9y
ZzBcMA0GCSqGSIb3DQEBAQUAA0sAMEgCQQDVAsLLosGp3rcq/HV6zG16Pzp5G1ld
Oto6OUIajheYyGSkZlXoHVJLrQBcN/5V7GkO3PNQWV0Hd7zqGptRiLW1AgMBAAGj
ezB5MAkGA1UdEwQCMAAwLAYJYIZIAYb4QgENBB8WHU9wZW5TU0wgR2VuZXJhdGVk
IENlcnRpZmljYXRlMB0GA1UdDgQWBBTCZ+TBAZAwVJtX0WHDEANJ6Nv2MjAfBgNV
HSMEGDAWgBT8LYmiXJqcfAjQNVvrtC5fnVFDIzANBgkqhkiG9w0BAQUFAAOBgQA2
j5rRZepBKewW32F7cxyDl8s5QpINmYkxpPG+TFGDYO2mpMSzTMI0NwxGA//N48Tg
rRcrcMBMmQ40L/286sJLXm0KxGk6NkKCdxUqwCHYjlgZRdXTS+JtOJ0v65CporSZ
dnDEB7uurE7NcTk30IXUug9koJ3XQXZRSpPL/enIKA==
-----END CERTIFICATE-----
